; Function Attrs: mustprogress nounwind uwtable
define dso_local void @_ZN4llvm17PredicateExpander28expandCheckFunctionPredicateERNS_11raw_ostreamENS_9StringRefES3_(ptr nocapture noundef nonnull readonly align 8 dereferenceable(24) %0, ptr noundef nonnull align 8 dereferenceable(48) %1, ptr %2, i64 %3, ptr %4, i64 %5) local_unnamed_addr #0 align 2 {
  %7 = getelementptr inbounds nuw i8, ptr %0, i64 2
  %8 = load i8, ptr %7, align 2
  %9 = trunc i8 %8 to i1
  %.sroa.0.0.copyload.sroa.speculated = select i1 %9, ptr %2, ptr %4
  %.sroa.2.0.copyload.sroa.speculated = select i1 %9, i64 %3, i64 %5
  %10 = getelementptr inbounds nuw i8, ptr %1, i64 24
  %11 = load ptr, ptr %10, align 8
  %12 = getelementptr inbounds nuw i8, ptr %1, i64 32
  %13 = load ptr, ptr %12, align 8
  %14 = ptrtoint ptr %11 to i64
  %15 = ptrtoint ptr %13 to i64
  %16 = sub i64 %14, %15
  %17 = icmp ugt i64 %.sroa.2.0.copyload.sroa.speculated, %16
  br i1 %17, label %18, label %20

18:                                               ; preds = %6
  %19 = tail call noundef nonnull align 8 dereferenceable(48) ptr @_ZN4llvm11raw_ostream5writeEPKcm(ptr noundef nonnull align 8 dereferenceable(48) %1, ptr noundef %.sroa.0.0.copyload.sroa.speculated, i64 noundef %.sroa.2.0.copyload.sroa.speculated) #10
  %.phi.trans.insert = getelementptr inbounds nuw i8, ptr %19, i64 32
  %.pre = load ptr, ptr %.phi.trans.insert, align 8
  br label %_ZN4llvm11raw_ostreamlsENS_9StringRefE.exit

20:                                               ; preds = %6
  %.not.i = icmp eq i64 %.sroa.2.0.copyload.sroa.speculated, 0
  br i1 %.not.i, label %_ZN4llvm11raw_ostreamlsENS_9StringRefE.exit, label %21

21:                                               ; preds = %20
  tail call void @llvm.memcpy.p0.p0.i64(ptr align 1 %13, ptr align 1 %.sroa.0.0.copyload.sroa.speculated, i64 %.sroa.2.0.copyload.sroa.speculated, i1 false)
  %22 = load ptr, ptr %12, align 8
  %23 = getelementptr inbounds i8, ptr %22, i64 %.sroa.2.0.copyload.sroa.speculated
  store ptr %23, ptr %12, align 8
  br label %_ZN4llvm11raw_ostreamlsENS_9StringRefE.exit

_ZN4llvm11raw_ostreamlsENS_9StringRefE.exit:      ; preds = %18, %20, %21
  %24 = phi ptr [ %.pre, %18 ], [ %23, %21 ], [ %13, %20 ]
  %.0.i = phi ptr [ %19, %18 ], [ %1, %21 ], [ %1, %20 ]
  %25 = load i8, ptr %0, align 8
  %26 = trunc i8 %25 to i1
  %27 = select i1 %26, ptr @.str.36, ptr @.str.37
  %28 = select i1 %26, i64 4, i64 5
  %29 = getelementptr inbounds nuw i8, ptr %.0.i, i64 24
  %30 = load ptr, ptr %29, align 8
  %31 = ptrtoint ptr %30 to i64
  %32 = ptrtoint ptr %24 to i64
  %33 = sub i64 %31, %32
  %34 = icmp ugt i64 %28, %33
  br i1 %34, label %35, label %37

35:                                               ; preds = %_ZN4llvm11raw_ostreamlsENS_9StringRefE.exit
  %36 = tail call noundef nonnull align 8 dereferenceable(48) ptr @_ZN4llvm11raw_ostream5writeEPKcm(ptr noundef nonnull align 8 dereferenceable(48) %.0.i, ptr noundef nonnull %27, i64 noundef %28) #10
  br label %_ZN4llvm11raw_ostreamlsEPKc.exit

37:                                               ; preds = %_ZN4llvm11raw_ostreamlsENS_9StringRefE.exit
  %38 = getelementptr inbounds nuw i8, ptr %.0.i, i64 32
  tail call void @llvm.memcpy.p0.p0.i64(ptr noundef nonnull align 1 dereferenceable(4) %24, ptr noundef nonnull align 1 dereferenceable(4) %27, i64 %28, i1 false)
  %39 = load ptr, ptr %38, align 8
  %40 = getelementptr inbounds i8, ptr %39, i64 %28
  store ptr %40, ptr %38, align 8
  br label %_ZN4llvm11raw_ostreamlsEPKc.exit

_ZN4llvm11raw_ostreamlsEPKc.exit:                 ; preds = %35, %37
  ret void
}